; Function Attrs: null_pointer_is_valid sspstrong uwtable
define internal i32 @dissect_get_butype_info_reply(ptr noundef %0, i32 noundef %1, ptr noundef %2, ptr noundef %3, i32 %4) #0 {
  %6 = tail call i32 @tvb_get_ntohl(ptr noundef %0, i32 noundef %1)
  %7 = load i32, ptr @hf_ndmp_error, align 4
  %8 = tail call ptr @proto_tree_add_item(ptr noundef %3, i32 noundef %7, ptr noundef %0, i32 noundef %1, i32 noundef 4, i32 noundef 0)
  %.not.i = icmp eq i32 %6, 0
  br i1 %.not.i, label %dissect_error.exit, label %9

9:                                                ; preds = %5
  %10 = getelementptr inbounds nuw i8, ptr %2, i64 8
  %11 = load ptr, ptr %10, align 8
  %12 = tail call ptr @val_to_str(i32 noundef %6, ptr noundef nonnull @error_vals, ptr noundef nonnull @.str.750)
  tail call void (ptr, i32, ptr, ...) @col_append_fstr(ptr noundef %11, i32 noundef 25, ptr noundef nonnull @.str.749, ptr noundef %12)
  br label %dissect_error.exit

dissect_error.exit:                               ; preds = %5, %9
  %13 = add i32 %1, 4
  %14 = load i32, ptr @hf_ndmp_butype_info, align 4
  %15 = tail call i32 @dissect_rpc_array(ptr noundef %0, ptr noundef %2, ptr noundef %3, i32 noundef %13, ptr noundef nonnull @dissect_butype_info, i32 noundef %14)
  ret i32 %15
}